; Function Attrs: mustprogress nofree norecurse nosync nounwind willreturn memory(argmem: readwrite) uwtable
define hidden void @av1_tile_init(ptr nocapture noundef writeonly %0, ptr nocapture noundef readonly %1, i32 noundef %2, i32 noundef %3) local_unnamed_addr #0 {
  %5 = getelementptr inbounds i8, ptr %1, i64 27456
  %6 = sext i32 %2 to i64
  %7 = getelementptr inbounds [65 x i32], ptr %5, i64 0, i64 %6
  %8 = load i32, ptr %7, align 4
  %9 = getelementptr inbounds i8, ptr %1, i64 25220
  %10 = load i32, ptr %9, align 4
  %11 = shl i32 %8, %10
  %12 = add nsw i32 %2, 1
  %13 = sext i32 %12 to i64
  %14 = getelementptr inbounds [65 x i32], ptr %5, i64 0, i64 %13
  %15 = load i32, ptr %14, align 4
  %16 = shl i32 %15, %10
  %17 = getelementptr inbounds nuw i8, ptr %0, i64 16
  store i32 %2, ptr %17, align 4
  store i32 %11, ptr %0, align 4
  %18 = getelementptr inbounds i8, ptr %1, i64 1076
  %19 = load i32, ptr %18, align 4
  %..i = tail call i32 @llvm.smin.i32(i32 %16, i32 %19)
  %20 = getelementptr inbounds nuw i8, ptr %0, i64 4
  store i32 %..i, ptr %20, align 4
  %21 = getelementptr inbounds i8, ptr %1, i64 27196
  %22 = sext i32 %3 to i64
  %23 = getelementptr inbounds [65 x i32], ptr %21, i64 0, i64 %22
  %24 = load i32, ptr %23, align 4
  %25 = load i32, ptr %9, align 4
  %26 = shl i32 %24, %25
  %27 = add nsw i32 %3, 1
  %28 = sext i32 %27 to i64
  %29 = getelementptr inbounds [65 x i32], ptr %21, i64 0, i64 %28
  %30 = load i32, ptr %29, align 4
  %31 = shl i32 %30, %25
  %32 = getelementptr inbounds nuw i8, ptr %0, i64 20
  store i32 %3, ptr %32, align 4
  %33 = getelementptr inbounds nuw i8, ptr %0, i64 8
  store i32 %26, ptr %33, align 4
  %34 = getelementptr inbounds i8, ptr %1, i64 1080
  %35 = load i32, ptr %34, align 8
  %..i5 = tail call i32 @llvm.smin.i32(i32 %31, i32 %35)
  %36 = getelementptr inbounds nuw i8, ptr %0, i64 12
  store i32 %..i5, ptr %36, align 4
  ret void
}